target datalayout = "e-m:e-p270:32:32-p271:32:32-p272:64:64-i64:64-i128:128-f80:128-n8:16:32:64-S128"
target triple = "x86_64-pc-linux-gnu"

%struct.FxuHeapSingle = type { ptr, i32, i32, i32 }

; Function Attrs: nounwind uwtable
define ptr @Fxu_HeapSingleStart() #0 {
  %1 = alloca ptr, align 8
  call void @llvm.lifetime.start.p0(i64 8, ptr %1) #6
  %2 = call noalias ptr @malloc(i64 noundef 24) #7
  store ptr %2, ptr %1, align 8, !tbaa !3
  %3 = load ptr, ptr %1, align 8, !tbaa !3
  call void @llvm.memset.p0.i64(ptr align 8 %3, i8 0, i64 24, i1 false)
  %4 = load ptr, ptr %1, align 8, !tbaa !3
  %5 = getelementptr inbounds nuw %struct.FxuHeapSingle, ptr %4, i32 0, i32 1
  store i32 0, ptr %5, align 8, !tbaa !8
  %6 = load ptr, ptr %1, align 8, !tbaa !3
  %7 = getelementptr inbounds nuw %struct.FxuHeapSingle, ptr %6, i32 0, i32 2
  store i32 2000, ptr %7, align 4, !tbaa !12
  %8 = load ptr, ptr %1, align 8, !tbaa !3
  %9 = getelementptr inbounds nuw %struct.FxuHeapSingle, ptr %8, i32 0, i32 2
  %10 = load i32, ptr %9, align 4, !tbaa !12
  %11 = add nsw i32 %10, 10
  %12 = sext i32 %11 to i64
  %13 = mul i64 8, %12
  %14 = call noalias ptr @malloc(i64 noundef %13) #7
  %15 = load ptr, ptr %1, align 8, !tbaa !3
  %16 = getelementptr inbounds nuw %struct.FxuHeapSingle, ptr %15, i32 0, i32 0
  store ptr %14, ptr %16, align 8, !tbaa !13
  %17 = load ptr, ptr %1, align 8, !tbaa !3
  %18 = getelementptr inbounds nuw %struct.FxuHeapSingle, ptr %17, i32 0, i32 0
  %19 = load ptr, ptr %18, align 8, !tbaa !13
  %20 = getelementptr inbounds ptr, ptr %19, i64 0
  store ptr null, ptr %20, align 8, !tbaa !14
  %21 = load ptr, ptr %1, align 8, !tbaa !3
  call void @llvm.lifetime.end.p0(i64 8, ptr %1) #6
  ret ptr %21
}