; Function Attrs: mustprogress nofree nounwind willreturn memory(write, argmem: none, inaccessiblemem: readwrite) uwtable
define noalias noundef ptr @Fxu_HeapSingleStart() local_unnamed_addr #0 {
  %calloc = tail call dereferenceable_or_null(24) ptr @calloc(i64 1, i64 24)
  %1 = getelementptr inbounds nuw i8, ptr %calloc, i64 12
  store i32 2000, ptr %1, align 4, !tbaa !3
  %2 = tail call noalias dereferenceable_or_null(16080) ptr @malloc(i64 noundef 16080) #14
  store ptr %2, ptr %calloc, align 8, !tbaa !10
  store ptr null, ptr %2, align 8, !tbaa !11
  ret ptr %calloc
}